target datalayout = "e-m:e-p270:32:32-p271:32:32-p272:64:64-i64:64-i128:128-f80:128-n8:16:32:64-S128"
target triple = "x86_64-pc-linux-gnu"

; Function Attrs: mustprogress nounwind uwtable
define noundef i64 @_ZN11duckdb_zstd18ZSTD_compressBoundEm(i64 noundef %0) #0 {
  %2 = alloca i64, align 8
  %3 = alloca i64, align 8
  %4 = alloca i64, align 8
  %5 = alloca i32, align 4
  store i64 %0, ptr %3, align 8, !tbaa !3
  call void @llvm.lifetime.start.p0(i64 8, ptr %4) #16
  %6 = load i64, ptr %3, align 8, !tbaa !3
  %7 = icmp uge i64 %6, -71777214294589696
  br i1 %7, label %8, label %9

8:                                                ; preds = %1
  br label %24

9:                                                ; preds = %1
  %10 = load i64, ptr %3, align 8, !tbaa !3
  %11 = load i64, ptr %3, align 8, !tbaa !3
  %12 = lshr i64 %11, 8
  %13 = add i64 %10, %12
  %14 = load i64, ptr %3, align 8, !tbaa !3
  %15 = icmp ult i64 %14, 131072
  br i1 %15, label %16, label %20

16:                                               ; preds = %9
  %17 = load i64, ptr %3, align 8, !tbaa !3
  %18 = sub i64 131072, %17
  %19 = lshr i64 %18, 11
  br label %21

20:                                               ; preds = %9
  br label %21

21:                                               ; preds = %20, %16
  %22 = phi i64 [ %19, %16 ], [ 0, %20 ]
  %23 = add i64 %13, %22
  br label %24

24:                                               ; preds = %21, %8
  %25 = phi i64 [ 0, %8 ], [ %23, %21 ]
  store i64 %25, ptr %4, align 8, !tbaa !3
  %26 = load i64, ptr %4, align 8, !tbaa !3
  %27 = icmp eq i64 %26, 0
  br i1 %27, label %28, label %29

28:                                               ; preds = %24
  store i64 -72, ptr %2, align 8
  store i32 1, ptr %5, align 4
  br label %31

29:                                               ; preds = %24
  %30 = load i64, ptr %4, align 8, !tbaa !3
  store i64 %30, ptr %2, align 8
  store i32 1, ptr %5, align 4
  br label %31

31:                                               ; preds = %29, %28
  call void @llvm.lifetime.end.p0(i64 8, ptr %4) #16
  %32 = load i64, ptr %2, align 8
  ret i64 %32
}