; Function Attrs: mustprogress nofree norecurse nosync nounwind willreturn memory(none) uwtable
define noundef range(i64 1, 0) i64 @_ZN11duckdb_zstd18ZSTD_compressBoundEm(i64 noundef %0) local_unnamed_addr #0 {
  %2 = icmp ugt i64 %0, -71777214294589697
  br i1 %2, label %.thread, label %3

3:                                                ; preds = %1
  %4 = lshr i64 %0, 8
  %5 = add nuw i64 %4, %0
  %6 = icmp ult i64 %0, 131072
  %7 = sub nuw nsw i64 131072, %0
  %8 = lshr i64 %7, 11
  %9 = select i1 %6, i64 %8, i64 0
  %10 = add i64 %5, %9
  %.fr = freeze i64 %10
  %11 = icmp eq i64 %.fr, 0
  br i1 %11, label %.thread, label %12

.thread:                                          ; preds = %1, %3
  br label %12

12:                                               ; preds = %3, %.thread
  %13 = phi i64 [ -72, %.thread ], [ %.fr, %3 ]
  ret i64 %13
}